; Function Attrs: mustprogress uwtable
define noundef nonnull align 8 dereferenceable(60) ptr @_ZN6icu_7710CharString8copyFromENS_11StringPieceER10UErrorCode(ptr noundef nonnull returned align 8 dereferenceable(60) %0, ptr %1, i32 %2, ptr noundef nonnull align 4 dereferenceable(4) %3) local_unnamed_addr #1 align 2 {
  %5 = load i32, ptr %3, align 4, !tbaa !13
  %6 = icmp slt i32 %5, 1
  br i1 %6, label %7, label %10

7:                                                ; preds = %4
  %8 = getelementptr inbounds nuw i8, ptr %0, i64 56
  store i32 0, ptr %8, align 8, !tbaa !15
  %9 = tail call noundef nonnull align 8 dereferenceable(60) ptr @_ZN6icu_7710CharString6appendEPKciR10UErrorCode(ptr noundef nonnull align 8 dereferenceable(60) %0, ptr noundef %1, i32 noundef %2, ptr noundef nonnull align 4 dereferenceable(4) %3)
  br label %10

10:                                               ; preds = %4, %7
  ret ptr %0
}